target datalayout = "e-m:e-p270:32:32-p271:32:32-p272:64:64-i64:64-i128:128-f80:128-n8:16:32:64-S128"
target triple = "x86_64-pc-linux-gnu"

%"class.std::__cxx11::basic_string" = type { %"struct.std::__cxx11::basic_string<char>::_Alloc_hider", i64, %union.anon }
%"struct.std::__cxx11::basic_string<char>::_Alloc_hider" = type { ptr }
%union.anon = type { i64, [8 x i8] }
%"class.std::allocator" = type { i8 }
%struct.CvSeq = type { i32, i32, ptr, ptr, ptr, ptr, i32, i32, ptr, ptr, i32, ptr, ptr, ptr }
%struct.CvSeqBlock = type { ptr, ptr, i32, i32, ptr }
%struct.CvSeqReader = type { i32, ptr, ptr, ptr, ptr, ptr, i32, ptr }

@.str = private unnamed_addr constant [1 x i8] zeroinitializer, align 1
@.str.1 = private unnamed_addr constant [124 x i8] c"generated/home/dtcxzyw/WorkSpace/Projects/compilers/llvm-opt-benchmark/bench/opencv/opencv/modules/core/src/datastructs.cpp\00", align 1
@__func__.cvStartReadSeq = private unnamed_addr constant [15 x i8] c"cvStartReadSeq\00", align 1

; Function Attrs: mustprogress nounwind uwtable
define linkonce_odr hidden void @_ZNSt15__new_allocatorIcE10deallocateEPcm(ptr noundef nonnull align 1 dereferenceable(1) %0, ptr noundef %1, i64 noundef %2) #4 comdat align 2 {
  %4 = alloca ptr, align 8
  %5 = alloca ptr, align 8
  %6 = alloca i64, align 8
  store ptr %0, ptr %4, align 8, !tbaa !264
  store ptr %1, ptr %5, align 8, !tbaa !19
  store i64 %2, ptr %6, align 8, !tbaa !38
  %7 = load ptr, ptr %5, align 8, !tbaa !19
  call void @_ZdlPv(ptr noundef %7) #16
  ret void
}

; Function Attrs: mustprogress nounwind uwtable
define linkonce_odr hidden noundef ptr @_ZNSt19__ptr_traits_ptr_toIPKcS0_Lb0EE10pointer_toERS0_(ptr noundef nonnull align 1 dereferenceable(1) %0) #4 comdat align 2 {
  %2 = alloca ptr, align 8
  store ptr %0, ptr %2, align 8, !tbaa !19
  %3 = load ptr, ptr %2, align 8, !tbaa !19
  ret ptr %3
}

; Function Attrs: mustprogress uwtable
define linkonce_odr hidden void @_ZNSt16allocator_traitsISaIcEE10deallocateERS0_Pcm(ptr noundef nonnull align 1 dereferenceable(1) %0, ptr noundef %1, i64 noundef %2) #0 comdat align 2 {
  %4 = alloca ptr, align 8
  %5 = alloca ptr, align 8
  %6 = alloca i64, align 8
  store ptr %0, ptr %4, align 8, !tbaa !15
  store ptr %1, ptr %5, align 8, !tbaa !19
  store i64 %2, ptr %6, align 8, !tbaa !38
  %7 = load ptr, ptr %4, align 8, !tbaa !15
  %8 = load ptr, ptr %5, align 8, !tbaa !19
  %9 = load i64, ptr %6, align 8, !tbaa !38
  call void @_ZNSt15__new_allocatorIcE10deallocateEPcm(ptr noundef nonnull align 1 dereferenceable(1) %7, ptr noundef %8, i64 noundef %9)
  ret void
}

; Function Attrs: mustprogress nounwind uwtable
define available_externally noundef nonnull align 1 dereferenceable(1) ptr @_ZNSt7__cxx1112basic_stringIcSt11char_traitsIcESaIcEE16_M_get_allocatorEv(ptr noundef nonnull align 8 dereferenceable(32) %0) #4 align 2 {
  %2 = alloca ptr, align 8
  store ptr %0, ptr %2, align 8, !tbaa !17
  %3 = load ptr, ptr %2, align 8
  %4 = getelementptr inbounds nuw %"class.std::__cxx11::basic_string", ptr %3, i32 0, i32 0
  ret ptr %4
}

; Function Attrs: mustprogress nounwind uwtable
define available_externally noundef ptr @_ZNKSt7__cxx1112basic_stringIcSt11char_traitsIcESaIcEE13_M_local_dataEv(ptr noundef nonnull align 8 dereferenceable(32) %0) #4 align 2 {
  %2 = alloca ptr, align 8
  store ptr %0, ptr %2, align 8, !tbaa !17
  %3 = load ptr, ptr %2, align 8
  %4 = getelementptr inbounds nuw %"class.std::__cxx11::basic_string", ptr %3, i32 0, i32 2
  %5 = getelementptr inbounds [16 x i8], ptr %4, i64 0, i64 0
  %6 = call noundef ptr @_ZNSt19__ptr_traits_ptr_toIPKcS0_Lb0EE10pointer_toERS0_(ptr noundef nonnull align 1 dereferenceable(1) %5) #13
  ret ptr %6
}

; Function Attrs: mustprogress nounwind uwtable
define available_externally noundef ptr @_ZNKSt7__cxx1112basic_stringIcSt11char_traitsIcESaIcEE7_M_dataEv(ptr noundef nonnull align 8 dereferenceable(32) %0) #4 align 2 {
  %2 = alloca ptr, align 8
  store ptr %0, ptr %2, align 8, !tbaa !17
  %3 = load ptr, ptr %2, align 8
  %4 = getelementptr inbounds nuw %"class.std::__cxx11::basic_string", ptr %3, i32 0, i32 0
  %5 = getelementptr inbounds nuw %"struct.std::__cxx11::basic_string<char>::_Alloc_hider", ptr %4, i32 0, i32 0
  %6 = load ptr, ptr %5, align 8, !tbaa !269
  ret ptr %6
}

; Function Attrs: mustprogress nounwind uwtable
define available_externally void @_ZNSt7__cxx1112basic_stringIcSt11char_traitsIcESaIcEE10_M_destroyEm(ptr noundef nonnull align 8 dereferenceable(32) %0, i64 noundef %1) #4 align 2 personality ptr @__gxx_personality_v0 {
  %3 = alloca ptr, align 8
  %4 = alloca i64, align 8
  %5 = alloca ptr, align 8
  %6 = alloca i32, align 4
  store ptr %0, ptr %3, align 8, !tbaa !17
  store i64 %1, ptr %4, align 8, !tbaa !38
  %7 = load ptr, ptr %3, align 8
  %8 = invoke noundef nonnull align 1 dereferenceable(1) ptr @_ZNSt7__cxx1112basic_stringIcSt11char_traitsIcESaIcEE16_M_get_allocatorEv(ptr noundef nonnull align 8 dereferenceable(32) %7)
          to label %9 unwind label %14

9:                                                ; preds = %2
  %10 = call noundef ptr @_ZNKSt7__cxx1112basic_stringIcSt11char_traitsIcESaIcEE7_M_dataEv(ptr noundef nonnull align 8 dereferenceable(32) %7)
  %11 = load i64, ptr %4, align 8, !tbaa !38
  %12 = add i64 %11, 1
  invoke void @_ZNSt16allocator_traitsISaIcEE10deallocateERS0_Pcm(ptr noundef nonnull align 1 dereferenceable(1) %8, ptr noundef %10, i64 noundef %12)
          to label %13 unwind label %14

13:                                               ; preds = %9
  ret void

14:                                               ; preds = %9, %2
  %15 = landingpad { ptr, i32 }
          filter [0 x ptr] zeroinitializer
  %16 = extractvalue { ptr, i32 } %15, 0
  store ptr %16, ptr %5, align 8
  %17 = extractvalue { ptr, i32 } %15, 1
  store i32 %17, ptr %6, align 4
  br label %18

18:                                               ; preds = %14
  %19 = load ptr, ptr %5, align 8
  call void @__cxa_call_unexpected(ptr %19) #14
  unreachable
}

; Function Attrs: mustprogress uwtable
define available_externally noundef zeroext i1 @_ZNKSt7__cxx1112basic_stringIcSt11char_traitsIcESaIcEE11_M_is_localEv(ptr noundef nonnull align 8 dereferenceable(32) %0) #0 align 2 {
  %2 = alloca i1, align 1
  %3 = alloca ptr, align 8
  store ptr %0, ptr %3, align 8, !tbaa !17
  %4 = load ptr, ptr %3, align 8
  %5 = call noundef ptr @_ZNKSt7__cxx1112basic_stringIcSt11char_traitsIcESaIcEE7_M_dataEv(ptr noundef nonnull align 8 dereferenceable(32) %4)
  %6 = call noundef ptr @_ZNKSt7__cxx1112basic_stringIcSt11char_traitsIcESaIcEE13_M_local_dataEv(ptr noundef nonnull align 8 dereferenceable(32) %4)
  %7 = icmp eq ptr %5, %6
  br i1 %7, label %8, label %14

8:                                                ; preds = %1
  %9 = getelementptr inbounds nuw %"class.std::__cxx11::basic_string", ptr %4, i32 0, i32 1
  %10 = load i64, ptr %9, align 8, !tbaa !266
  %11 = icmp ugt i64 %10, 15
  br i1 %11, label %12, label %13

12:                                               ; preds = %8
  unreachable

13:                                               ; preds = %8
  store i1 true, ptr %2, align 1
  br label %15

14:                                               ; preds = %1
  store i1 false, ptr %2, align 1
  br label %15

15:                                               ; preds = %14, %13
  %16 = load i1, ptr %2, align 1
  ret i1 %16
}

; Function Attrs: noinline noreturn nounwind uwtable
define linkonce_odr hidden void @__clang_call_terminate(ptr noundef %0) #9 comdat {
  %2 = call ptr @__cxa_begin_catch(ptr %0) #13
  call void @_ZSt9terminatev() #15
  unreachable
}

; Function Attrs: mustprogress uwtable
define available_externally void @_ZNSt7__cxx1112basic_stringIcSt11char_traitsIcESaIcEE10_M_disposeEv(ptr noundef nonnull align 8 dereferenceable(32) %0) #0 align 2 {
  %2 = alloca ptr, align 8
  store ptr %0, ptr %2, align 8, !tbaa !17
  %3 = load ptr, ptr %2, align 8
  %4 = call noundef zeroext i1 @_ZNKSt7__cxx1112basic_stringIcSt11char_traitsIcESaIcEE11_M_is_localEv(ptr noundef nonnull align 8 dereferenceable(32) %3)
  br i1 %4, label %8, label %5

5:                                                ; preds = %1
  %6 = getelementptr inbounds nuw %"class.std::__cxx11::basic_string", ptr %3, i32 0, i32 2
  %7 = load i64, ptr %6, align 8, !tbaa !62
  call void @_ZNSt7__cxx1112basic_stringIcSt11char_traitsIcESaIcEE10_M_destroyEm(ptr noundef nonnull align 8 dereferenceable(32) %3, i64 noundef %7) #13
  br label %8

8:                                                ; preds = %5, %1
  ret void
}

; Function Attrs: mustprogress nounwind uwtable
define linkonce_odr hidden void @_ZNSt15__new_allocatorIcEC2Ev(ptr noundef nonnull align 1 dereferenceable(1) %0) unnamed_addr #4 comdat align 2 {
  %2 = alloca ptr, align 8
  store ptr %0, ptr %2, align 8, !tbaa !264
  ret void
}

; Function Attrs: mustprogress nounwind uwtable
define linkonce_odr hidden void @_ZNSt15__new_allocatorIcED2Ev(ptr noundef nonnull align 1 dereferenceable(1) %0) unnamed_addr #4 comdat align 2 {
  %2 = alloca ptr, align 8
  store ptr %0, ptr %2, align 8, !tbaa !264
  ret void
}

; Function Attrs: mustprogress nounwind uwtable
define available_externally void @_ZNSt7__cxx1112basic_stringIcSt11char_traitsIcESaIcEED2Ev(ptr noundef nonnull align 8 dereferenceable(32) %0) unnamed_addr #4 align 2 personality ptr @__gxx_personality_v0 {
  %2 = alloca ptr, align 8
  store ptr %0, ptr %2, align 8, !tbaa !17
  %3 = load ptr, ptr %2, align 8
  invoke void @_ZNSt7__cxx1112basic_stringIcSt11char_traitsIcESaIcEE10_M_disposeEv(ptr noundef nonnull align 8 dereferenceable(32) %3)
          to label %4 unwind label %6

4:                                                ; preds = %1
  %5 = getelementptr inbounds nuw %"class.std::__cxx11::basic_string", ptr %3, i32 0, i32 0
  call void @_ZNSt15__new_allocatorIcED2Ev(ptr noundef nonnull align 8 dereferenceable(8) %5) #13
  ret void

6:                                                ; preds = %1
  %7 = landingpad { ptr, i32 }
          catch ptr null
  %8 = extractvalue { ptr, i32 } %7, 0
  call void @__clang_call_terminate(ptr %8) #15
  unreachable
}

; Function Attrs: mustprogress nounwind uwtable
define available_externally void @_ZNSaIcEC2Ev(ptr noundef nonnull align 1 dereferenceable(1) %0) unnamed_addr #4 align 2 {
  %2 = alloca ptr, align 8
  store ptr %0, ptr %2, align 8, !tbaa !15
  %3 = load ptr, ptr %2, align 8
  call void @_ZNSt15__new_allocatorIcEC2Ev(ptr noundef nonnull align 1 dereferenceable(1) %3) #13
  ret void
}

; Function Attrs: mustprogress uwtable
define void @cvStartReadSeq(ptr noundef %0, ptr noundef %1, i32 noundef %2) #0 personality ptr @__gxx_personality_v0 {
  %4 = alloca ptr, align 8
  %5 = alloca ptr, align 8
  %6 = alloca i32, align 4
  %7 = alloca ptr, align 8
  %8 = alloca ptr, align 8
  %9 = alloca %"class.std::__cxx11::basic_string", align 8
  %10 = alloca %"class.std::allocator", align 1
  %11 = alloca ptr, align 8
  %12 = alloca i32, align 4
  %13 = alloca ptr, align 8
  store ptr %0, ptr %4, align 8, !tbaa !40
  store ptr %1, ptr %5, align 8, !tbaa !75
  store i32 %2, ptr %6, align 4, !tbaa !3
  call void @llvm.lifetime.start.p0(i64 8, ptr %7) #13
  call void @llvm.lifetime.start.p0(i64 8, ptr %8) #13
  %14 = load ptr, ptr %5, align 8, !tbaa !75
  %15 = icmp ne ptr %14, null
  br i1 %15, label %16, label %27

16:                                               ; preds = %3
  %17 = load ptr, ptr %5, align 8, !tbaa !75
  %18 = getelementptr inbounds nuw %struct.CvSeqReader, ptr %17, i32 0, i32 1
  store ptr null, ptr %18, align 8, !tbaa !77
  %19 = load ptr, ptr %5, align 8, !tbaa !75
  %20 = getelementptr inbounds nuw %struct.CvSeqReader, ptr %19, i32 0, i32 2
  store ptr null, ptr %20, align 8, !tbaa !73
  %21 = load ptr, ptr %5, align 8, !tbaa !75
  %22 = getelementptr inbounds nuw %struct.CvSeqReader, ptr %21, i32 0, i32 4
  store ptr null, ptr %22, align 8, !tbaa !78
  %23 = load ptr, ptr %5, align 8, !tbaa !75
  %24 = getelementptr inbounds nuw %struct.CvSeqReader, ptr %23, i32 0, i32 5
  store ptr null, ptr %24, align 8, !tbaa !70
  %25 = load ptr, ptr %5, align 8, !tbaa !75
  %26 = getelementptr inbounds nuw %struct.CvSeqReader, ptr %25, i32 0, i32 3
  store ptr null, ptr %26, align 8, !tbaa !72
  br label %27

27:                                               ; preds = %16, %3
  %28 = load ptr, ptr %4, align 8, !tbaa !40
  %29 = icmp ne ptr %28, null
  br i1 %29, label %30, label %33

30:                                               ; preds = %27
  %31 = load ptr, ptr %5, align 8, !tbaa !75
  %32 = icmp ne ptr %31, null
  br i1 %32, label %45, label %33

33:                                               ; preds = %30, %27
  call void @llvm.lifetime.start.p0(i64 32, ptr %9) #13
  call void @llvm.lifetime.start.p0(i64 1, ptr %10) #13
  call void @_ZNSaIcEC2Ev(ptr noundef nonnull align 1 dereferenceable(1) %10) #13
  invoke void @_ZNSt7__cxx1112basic_stringIcSt11char_traitsIcESaIcEEC2EPKcRKS3_(ptr noundef nonnull align 8 dereferenceable(32) %9, ptr noundef @.str, ptr noundef nonnull align 1 dereferenceable(1) %10)
          to label %34 unwind label %36

34:                                               ; preds = %33
  invoke void @_ZN2cv5errorEiRKNSt7__cxx1112basic_stringIcSt11char_traitsIcESaIcEEEPKcS9_i(i32 noundef -27, ptr noundef nonnull align 8 dereferenceable(32) %9, ptr noundef @__func__.cvStartReadSeq, ptr noundef @.str.1, i32 noundef 945) #14
          to label %35 unwind label %40

35:                                               ; preds = %34
  unreachable

36:                                               ; preds = %33
  %37 = landingpad { ptr, i32 }
          cleanup
  %38 = extractvalue { ptr, i32 } %37, 0
  store ptr %38, ptr %11, align 8
  %39 = extractvalue { ptr, i32 } %37, 1
  store i32 %39, ptr %12, align 4
  br label %44

40:                                               ; preds = %34
  %41 = landingpad { ptr, i32 }
          cleanup
  %42 = extractvalue { ptr, i32 } %41, 0
  store ptr %42, ptr %11, align 8
  %43 = extractvalue { ptr, i32 } %41, 1
  store i32 %43, ptr %12, align 4
  call void @_ZNSt7__cxx1112basic_stringIcSt11char_traitsIcESaIcEED2Ev(ptr noundef nonnull align 8 dereferenceable(32) %9) #13
  br label %44

44:                                               ; preds = %40, %36
  call void @_ZNSt15__new_allocatorIcED2Ev(ptr noundef nonnull align 1 dereferenceable(1) %10) #13
  call void @llvm.lifetime.end.p0(i64 1, ptr %10) #13
  call void @llvm.lifetime.end.p0(i64 32, ptr %9) #13
  call void @llvm.lifetime.end.p0(i64 8, ptr %8) #13
  call void @llvm.lifetime.end.p0(i64 8, ptr %7) #13
  br label %146

45:                                               ; preds = %30
  %46 = load ptr, ptr %5, align 8, !tbaa !75
  %47 = getelementptr inbounds nuw %struct.CvSeqReader, ptr %46, i32 0, i32 0
  store i32 64, ptr %47, align 8, !tbaa !79
  %48 = load ptr, ptr %4, align 8, !tbaa !40
  %49 = load ptr, ptr %5, align 8, !tbaa !75
  %50 = getelementptr inbounds nuw %struct.CvSeqReader, ptr %49, i32 0, i32 1
  store ptr %48, ptr %50, align 8, !tbaa !77
  %51 = load ptr, ptr %4, align 8, !tbaa !40
  %52 = getelementptr inbounds nuw %struct.CvSeq, ptr %51, i32 0, i32 13
  %53 = load ptr, ptr %52, align 8, !tbaa !50
  store ptr %53, ptr %7, align 8, !tbaa !51
  %54 = load ptr, ptr %7, align 8, !tbaa !51
  %55 = icmp ne ptr %54, null
  br i1 %55, label %56, label %132

56:                                               ; preds = %45
  %57 = load ptr, ptr %7, align 8, !tbaa !51
  %58 = getelementptr inbounds nuw %struct.CvSeqBlock, ptr %57, i32 0, i32 0
  %59 = load ptr, ptr %58, align 8, !tbaa !56
  store ptr %59, ptr %8, align 8, !tbaa !51
  %60 = load ptr, ptr %7, align 8, !tbaa !51
  %61 = getelementptr inbounds nuw %struct.CvSeqBlock, ptr %60, i32 0, i32 4
  %62 = load ptr, ptr %61, align 8, !tbaa !58
  %63 = load ptr, ptr %5, align 8, !tbaa !75
  %64 = getelementptr inbounds nuw %struct.CvSeqReader, ptr %63, i32 0, i32 3
  store ptr %62, ptr %64, align 8, !tbaa !72
  %65 = load ptr, ptr %8, align 8, !tbaa !51
  %66 = getelementptr inbounds nuw %struct.CvSeqBlock, ptr %65, i32 0, i32 4
  %67 = load ptr, ptr %66, align 8, !tbaa !58
  %68 = load ptr, ptr %8, align 8, !tbaa !51
  %69 = getelementptr inbounds nuw %struct.CvSeqBlock, ptr %68, i32 0, i32 3
  %70 = load i32, ptr %69, align 4, !tbaa !52
  %71 = sub nsw i32 %70, 1
  %72 = load ptr, ptr %4, align 8, !tbaa !40
  %73 = getelementptr inbounds nuw %struct.CvSeq, ptr %72, i32 0, i32 7
  %74 = load i32, ptr %73, align 4, !tbaa !46
  %75 = mul nsw i32 %71, %74
  %76 = sext i32 %75 to i64
  %77 = getelementptr inbounds i8, ptr %67, i64 %76
  %78 = load ptr, ptr %5, align 8, !tbaa !75
  %79 = getelementptr inbounds nuw %struct.CvSeqReader, ptr %78, i32 0, i32 7
  store ptr %77, ptr %79, align 8, !tbaa !80
  %80 = load ptr, ptr %4, align 8, !tbaa !40
  %81 = getelementptr inbounds nuw %struct.CvSeq, ptr %80, i32 0, i32 13
  %82 = load ptr, ptr %81, align 8, !tbaa !50
  %83 = getelementptr inbounds nuw %struct.CvSeqBlock, ptr %82, i32 0, i32 2
  %84 = load i32, ptr %83, align 8, !tbaa !63
  %85 = load ptr, ptr %5, align 8, !tbaa !75
  %86 = getelementptr inbounds nuw %struct.CvSeqReader, ptr %85, i32 0, i32 6
  store i32 %84, ptr %86, align 8, !tbaa !81
  %87 = load i32, ptr %6, align 4, !tbaa !3
  %88 = icmp ne i32 %87, 0
  br i1 %88, label %89, label %104

89:                                               ; preds = %56
  call void @llvm.lifetime.start.p0(i64 8, ptr %13) #13
  %90 = load ptr, ptr %5, align 8, !tbaa !75
  %91 = getelementptr inbounds nuw %struct.CvSeqReader, ptr %90, i32 0, i32 3
  %92 = load ptr, ptr %91, align 8, !tbaa !72
  store ptr %92, ptr %13, align 8, !tbaa !19
  %93 = load ptr, ptr %5, align 8, !tbaa !75
  %94 = getelementptr inbounds nuw %struct.CvSeqReader, ptr %93, i32 0, i32 7
  %95 = load ptr, ptr %94, align 8, !tbaa !80
  %96 = load ptr, ptr %5, align 8, !tbaa !75
  %97 = getelementptr inbounds nuw %struct.CvSeqReader, ptr %96, i32 0, i32 3
  store ptr %95, ptr %97, align 8, !tbaa !72
  %98 = load ptr, ptr %13, align 8, !tbaa !19
  %99 = load ptr, ptr %5, align 8, !tbaa !75
  %100 = getelementptr inbounds nuw %struct.CvSeqReader, ptr %99, i32 0, i32 7
  store ptr %98, ptr %100, align 8, !tbaa !80
  %101 = load ptr, ptr %8, align 8, !tbaa !51
  %102 = load ptr, ptr %5, align 8, !tbaa !75
  %103 = getelementptr inbounds nuw %struct.CvSeqReader, ptr %102, i32 0, i32 2
  store ptr %101, ptr %103, align 8, !tbaa !73
  call void @llvm.lifetime.end.p0(i64 8, ptr %13) #13
  br label %108

104:                                              ; preds = %56
  %105 = load ptr, ptr %7, align 8, !tbaa !51
  %106 = load ptr, ptr %5, align 8, !tbaa !75
  %107 = getelementptr inbounds nuw %struct.CvSeqReader, ptr %106, i32 0, i32 2
  store ptr %105, ptr %107, align 8, !tbaa !73
  br label %108

108:                                              ; preds = %104, %89
  %109 = load ptr, ptr %5, align 8, !tbaa !75
  %110 = getelementptr inbounds nuw %struct.CvSeqReader, ptr %109, i32 0, i32 2
  %111 = load ptr, ptr %110, align 8, !tbaa !73
  %112 = getelementptr inbounds nuw %struct.CvSeqBlock, ptr %111, i32 0, i32 4
  %113 = load ptr, ptr %112, align 8, !tbaa !58
  %114 = load ptr, ptr %5, align 8, !tbaa !75
  %115 = getelementptr inbounds nuw %struct.CvSeqReader, ptr %114, i32 0, i32 4
  store ptr %113, ptr %115, align 8, !tbaa !78
  %116 = load ptr, ptr %5, align 8, !tbaa !75
  %117 = getelementptr inbounds nuw %struct.CvSeqReader, ptr %116, i32 0, i32 4
  %118 = load ptr, ptr %117, align 8, !tbaa !78
  %119 = load ptr, ptr %5, align 8, !tbaa !75
  %120 = getelementptr inbounds nuw %struct.CvSeqReader, ptr %119, i32 0, i32 2
  %121 = load ptr, ptr %120, align 8, !tbaa !73
  %122 = getelementptr inbounds nuw %struct.CvSeqBlock, ptr %121, i32 0, i32 3
  %123 = load i32, ptr %122, align 4, !tbaa !52
  %124 = load ptr, ptr %4, align 8, !tbaa !40
  %125 = getelementptr inbounds nuw %struct.CvSeq, ptr %124, i32 0, i32 7
  %126 = load i32, ptr %125, align 4, !tbaa !46
  %127 = mul nsw i32 %123, %126
  %128 = sext i32 %127 to i64
  %129 = getelementptr inbounds i8, ptr %118, i64 %128
  %130 = load ptr, ptr %5, align 8, !tbaa !75
  %131 = getelementptr inbounds nuw %struct.CvSeqReader, ptr %130, i32 0, i32 5
  store ptr %129, ptr %131, align 8, !tbaa !70
  br label %145

132:                                              ; preds = %45
  %133 = load ptr, ptr %5, align 8, !tbaa !75
  %134 = getelementptr inbounds nuw %struct.CvSeqReader, ptr %133, i32 0, i32 6
  store i32 0, ptr %134, align 8, !tbaa !81
  %135 = load ptr, ptr %5, align 8, !tbaa !75
  %136 = getelementptr inbounds nuw %struct.CvSeqReader, ptr %135, i32 0, i32 2
  store ptr null, ptr %136, align 8, !tbaa !73
  %137 = load ptr, ptr %5, align 8, !tbaa !75
  %138 = getelementptr inbounds nuw %struct.CvSeqReader, ptr %137, i32 0, i32 5
  store ptr null, ptr %138, align 8, !tbaa !70
  %139 = load ptr, ptr %5, align 8, !tbaa !75
  %140 = getelementptr inbounds nuw %struct.CvSeqReader, ptr %139, i32 0, i32 4
  store ptr null, ptr %140, align 8, !tbaa !78
  %141 = load ptr, ptr %5, align 8, !tbaa !75
  %142 = getelementptr inbounds nuw %struct.CvSeqReader, ptr %141, i32 0, i32 7
  store ptr null, ptr %142, align 8, !tbaa !80
  %143 = load ptr, ptr %5, align 8, !tbaa !75
  %144 = getelementptr inbounds nuw %struct.CvSeqReader, ptr %143, i32 0, i32 3
  store ptr null, ptr %144, align 8, !tbaa !72
  br label %145

145:                                              ; preds = %132, %108
  call void @llvm.lifetime.end.p0(i64 8, ptr %8) #13
  call void @llvm.lifetime.end.p0(i64 8, ptr %7) #13
  ret void

146:                                              ; preds = %44
  %147 = load ptr, ptr %11, align 8
  %148 = load i32, ptr %12, align 4
  %149 = insertvalue { ptr, i32 } poison, ptr %147, 0
  %150 = insertvalue { ptr, i32 } %149, i32 %148, 1
  resume { ptr, i32 } %150
}