; Function Attrs: mustprogress uwtable
define void @cvStartReadSeq(ptr noundef %0, ptr noundef writeonly %1, i32 noundef %2) local_unnamed_addr #0 personality ptr @__gxx_personality_v0 {
  %4 = alloca %"class.std::__cxx11::basic_string", align 8
  %5 = alloca %"class.std::allocator", align 1
  %.not53 = icmp eq ptr %1, null
  br i1 %.not53, label %.thread, label %6

6:                                                ; preds = %3
  %7 = getelementptr inbounds nuw i8, ptr %1, i64 8
  %8 = getelementptr inbounds nuw i8, ptr %1, i64 16
  %9 = getelementptr inbounds nuw i8, ptr %1, i64 32
  %10 = getelementptr inbounds nuw i8, ptr %1, i64 40
  %11 = getelementptr inbounds nuw i8, ptr %1, i64 24
  %.not54 = icmp eq ptr %0, null
  tail call void @llvm.memset.p0.i64(ptr noundef nonnull align 8 dereferenceable(40) %7, i8 0, i64 40, i1 false)
  br i1 %.not54, label %.thread, label %21

.thread:                                          ; preds = %3, %6
  call void @llvm.lifetime.start.p0(i64 32, ptr nonnull %4) #11
  call void @llvm.lifetime.start.p0(i64 1, ptr nonnull %5) #11
  call void @_ZNSt7__cxx1112basic_stringIcSt11char_traitsIcESaIcEEC2EPKcRKS3_(ptr noundef nonnull align 8 dereferenceable(32) %4, ptr noundef nonnull @.str, ptr noundef nonnull align 1 dereferenceable(1) %5)
  invoke void @_ZN2cv5errorEiRKNSt7__cxx1112basic_stringIcSt11char_traitsIcESaIcEEEPKcS9_i(i32 noundef -27, ptr noundef nonnull align 8 dereferenceable(32) %4, ptr noundef nonnull @__func__.cvStartReadSeq, ptr noundef nonnull @.str.1, i32 noundef 945) #12
          to label %12 unwind label %13

12:                                               ; preds = %.thread
  unreachable

13:                                               ; preds = %.thread
  %14 = landingpad { ptr, i32 }
          cleanup
  %15 = load ptr, ptr %4, align 8, !tbaa !3
  %16 = getelementptr inbounds nuw i8, ptr %4, i64 16
  %17 = icmp eq ptr %15, %16
  br i1 %17, label %_ZNKSt7__cxx1112basic_stringIcSt11char_traitsIcESaIcEE11_M_is_localEv.exit.thread.i.i, label %_ZNKSt7__cxx1112basic_stringIcSt11char_traitsIcESaIcEE11_M_is_localEv.exit.i.i

_ZNKSt7__cxx1112basic_stringIcSt11char_traitsIcESaIcEE11_M_is_localEv.exit.thread.i.i: ; preds = %13
  %18 = getelementptr inbounds nuw i8, ptr %4, i64 8
  %19 = load i64, ptr %18, align 8, !tbaa !11
  %20 = icmp ult i64 %19, 16
  call void @llvm.assume(i1 %20)
  br label %_ZNSt7__cxx1112basic_stringIcSt11char_traitsIcESaIcEED2Ev.exit

_ZNKSt7__cxx1112basic_stringIcSt11char_traitsIcESaIcEE11_M_is_localEv.exit.i.i: ; preds = %13
  call void @_ZdlPv(ptr noundef %15) #13
  br label %_ZNSt7__cxx1112basic_stringIcSt11char_traitsIcESaIcEED2Ev.exit

_ZNSt7__cxx1112basic_stringIcSt11char_traitsIcESaIcEED2Ev.exit: ; preds = %_ZNKSt7__cxx1112basic_stringIcSt11char_traitsIcESaIcEE11_M_is_localEv.exit.i.i, %_ZNKSt7__cxx1112basic_stringIcSt11char_traitsIcESaIcEE11_M_is_localEv.exit.thread.i.i
  call void @llvm.lifetime.end.p0(i64 1, ptr nonnull %5) #11
  call void @llvm.lifetime.end.p0(i64 32, ptr nonnull %4) #11
  resume { ptr, i32 } %14

21:                                               ; preds = %6
  store i32 64, ptr %1, align 8, !tbaa !55
  store ptr %0, ptr %7, align 8, !tbaa !57
  %22 = getelementptr inbounds nuw i8, ptr %0, i64 88
  %23 = load ptr, ptr %22, align 8, !tbaa !43
  %.not = icmp eq ptr %23, null
  br i1 %.not, label %50, label %24

24:                                               ; preds = %21
  %25 = load ptr, ptr %23, align 8, !tbaa !48
  %26 = getelementptr inbounds nuw i8, ptr %23, i64 24
  %27 = load ptr, ptr %26, align 8, !tbaa !50
  store ptr %27, ptr %11, align 8, !tbaa !58
  %28 = getelementptr inbounds nuw i8, ptr %25, i64 24
  %29 = load ptr, ptr %28, align 8, !tbaa !50
  %30 = getelementptr inbounds nuw i8, ptr %25, i64 20
  %31 = load i32, ptr %30, align 4, !tbaa !44
  %32 = add nsw i32 %31, -1
  %33 = getelementptr inbounds nuw i8, ptr %0, i64 44
  %34 = load i32, ptr %33, align 4, !tbaa !39
  %35 = mul nsw i32 %32, %34
  %36 = sext i32 %35 to i64
  %37 = getelementptr inbounds i8, ptr %29, i64 %36
  %38 = getelementptr inbounds nuw i8, ptr %1, i64 56
  store ptr %37, ptr %38, align 8, !tbaa !63
  %39 = getelementptr inbounds nuw i8, ptr %23, i64 16
  %40 = load i32, ptr %39, align 8, !tbaa !53
  %41 = getelementptr inbounds nuw i8, ptr %1, i64 48
  store i32 %40, ptr %41, align 8, !tbaa !59
  %.not51 = icmp eq i32 %2, 0
  br i1 %.not51, label %43, label %42

42:                                               ; preds = %24
  store ptr %37, ptr %11, align 8, !tbaa !58
  store ptr %27, ptr %38, align 8, !tbaa !63
  br label %44

43:                                               ; preds = %24
  %.phi.trans.insert = getelementptr inbounds nuw i8, ptr %23, i64 20
  %.pre55 = load i32, ptr %.phi.trans.insert, align 4, !tbaa !44
  br label %44

44:                                               ; preds = %43, %42
  %45 = phi i32 [ %.pre55, %43 ], [ %31, %42 ]
  %46 = phi ptr [ %27, %43 ], [ %29, %42 ]
  %.sink = phi ptr [ %23, %43 ], [ %25, %42 ]
  store ptr %.sink, ptr %8, align 8, !tbaa !60
  store ptr %46, ptr %9, align 8, !tbaa !61
  %47 = mul nsw i32 %45, %34
  %48 = sext i32 %47 to i64
  %49 = getelementptr inbounds i8, ptr %46, i64 %48
  store ptr %49, ptr %10, align 8, !tbaa !62
  br label %52

50:                                               ; preds = %21
  %51 = getelementptr inbounds nuw i8, ptr %1, i64 56
  store ptr null, ptr %51, align 8, !tbaa !63
  tail call void @llvm.memset.p0.i64(ptr noundef nonnull align 8 dereferenceable(36) %8, i8 0, i64 36, i1 false)
  br label %52

52:                                               ; preds = %50, %44
  ret void
}